target datalayout = "e-m:e-p270:32:32-p271:32:32-p272:64:64-i64:64-i128:128-f80:128-n8:16:32:64-S128"
target triple = "x86_64-pc-linux-gnu"

%class.JfrVirtualMemorySegment = type { ptr, ptr, %class.ReservedSpace, %class.VirtualSpace }
%class.ReservedSpace = type <{ ptr, i64, i64, i64, i64, i8, [3 x i8], i32, i8, [7 x i8] }>
%class.VirtualSpace = type { ptr, ptr, ptr, ptr, i8, i8, ptr, ptr, ptr, ptr, ptr, ptr, i64, i64, i64 }

; Function Attrs: mustprogress nounwind uwtable
define linkonce_odr hidden noundef nonnull align 8 dereferenceable(112) ptr @_ZN23JfrVirtualMemorySegment13virtual_spaceEv(ptr noundef nonnull align 8 dereferenceable(184) %0) #1 comdat align 2 {
  %2 = alloca ptr, align 8
  store ptr %0, ptr %2, align 8
  %3 = load ptr, ptr %2, align 8
  %4 = getelementptr inbounds %class.JfrVirtualMemorySegment, ptr %3, i32 0, i32 3
  ret ptr %4
}

; Function Attrs: mustprogress nounwind uwtable
define hidden noundef zeroext i1 @_ZN23JfrVirtualMemorySegment9expand_byEm(ptr noundef nonnull align 8 dereferenceable(184) %0, i64 noundef %1) #1 align 2 {
  %3 = alloca ptr, align 8
  %4 = alloca i64, align 8
  %5 = alloca i64, align 8
  %6 = alloca i64, align 8
  %7 = alloca i8, align 1
  store ptr %0, ptr %3, align 8
  store i64 %1, ptr %4, align 8
  %8 = load ptr, ptr %3, align 8
  %9 = load i64, ptr %4, align 8
  %10 = mul i64 %9, 8
  store i64 %10, ptr %5, align 8
  %11 = call noundef nonnull align 8 dereferenceable(112) ptr @_ZN23JfrVirtualMemorySegment13virtual_spaceEv(ptr noundef nonnull align 8 dereferenceable(184) %8)
  %12 = call noundef i64 @_ZNK12VirtualSpace13reserved_sizeEv(ptr noundef nonnull align 8 dereferenceable(112) %11)
  %13 = call noundef nonnull align 8 dereferenceable(112) ptr @_ZN23JfrVirtualMemorySegment13virtual_spaceEv(ptr noundef nonnull align 8 dereferenceable(184) %8)
  %14 = call noundef i64 @_ZNK12VirtualSpace21actual_committed_sizeEv(ptr noundef nonnull align 8 dereferenceable(112) %13)
  %15 = sub i64 %12, %14
  store i64 %15, ptr %6, align 8
  %16 = load i64, ptr %6, align 8
  %17 = load i64, ptr %5, align 8
  %18 = icmp ult i64 %16, %17
  br i1 %18, label %19, label %21

19:                                               ; preds = %2
  %20 = load i64, ptr %6, align 8
  store i64 %20, ptr %5, align 8
  br label %21

21:                                               ; preds = %19, %2
  %22 = call noundef nonnull align 8 dereferenceable(112) ptr @_ZN23JfrVirtualMemorySegment13virtual_spaceEv(ptr noundef nonnull align 8 dereferenceable(184) %8)
  %23 = load i64, ptr %5, align 8
  %24 = call noundef zeroext i1 @_ZN12VirtualSpace9expand_byEmb(ptr noundef nonnull align 8 dereferenceable(112) %22, i64 noundef %23, i1 noundef zeroext false)
  %25 = zext i1 %24 to i8
  store i8 %25, ptr %7, align 1
  %26 = load i8, ptr %7, align 1
  %27 = trunc i8 %26 to i1
  ret i1 %27
}