; Function Attrs: mustprogress nounwind uwtable
define hidden noundef zeroext i1 @_ZN23JfrVirtualMemorySegment9expand_byEm(ptr noundef nonnull align 8 dereferenceable(184) %0, i64 noundef %1) local_unnamed_addr #0 align 2 {
  %3 = shl i64 %1, 3
  %4 = getelementptr inbounds i8, ptr %0, i64 72
  %5 = tail call noundef i64 @_ZNK12VirtualSpace13reserved_sizeEv(ptr noundef nonnull align 8 dereferenceable(112) %4) #11
  %6 = tail call noundef i64 @_ZNK12VirtualSpace21actual_committed_sizeEv(ptr noundef nonnull align 8 dereferenceable(112) %4) #11
  %7 = sub i64 %5, %6
  %spec.select = tail call i64 @llvm.umin.i64(i64 %7, i64 %3)
  %8 = tail call noundef zeroext i1 @_ZN12VirtualSpace9expand_byEmb(ptr noundef nonnull align 8 dereferenceable(112) %4, i64 noundef %spec.select, i1 noundef zeroext false) #11
  ret i1 %8
}